; Function Attrs: mustprogress nofree norecurse nosync nounwind memory(argmem: write) uwtable
define dso_local noundef zeroext i1 @_ZN5clang11ASTNodeKind8isBaseOfENS0_10NodeKindIdES1_Pj(i32 noundef %0, i32 noundef %1, ptr noundef writeonly %2) local_unnamed_addr #3 align 2 {
  %4 = icmp eq i32 %0, 0
  %5 = icmp eq i32 %1, 0
  %or.cond = or i1 %4, %5
  br i1 %or.cond, label %16, label %.preheader

.preheader:                                       ; preds = %3
  %.not21 = icmp eq i32 %1, %0
  br i1 %.not21, label %._crit_edge, label %.lr.ph

.lr.ph:                                           ; preds = %.preheader, %.lr.ph
  %.019 = phi i32 [ %9, %.lr.ph ], [ 0, %.preheader ]
  %.01418 = phi i32 [ %8, %.lr.ph ], [ %1, %.preheader ]
  %6 = zext i32 %.01418 to i64
  %7 = getelementptr inbounds [1018 x %"struct.clang::ASTNodeKind::KindInfo"], ptr @_ZN5clang11ASTNodeKind11AllKindInfoE, i64 0, i64 %6
  %8 = load i32, ptr %7, align 16
  %9 = add i32 %.019, 1
  %10 = icmp ne i32 %8, %0
  %11 = icmp ne i32 %8, 0
  %12 = and i1 %10, %11
  br i1 %12, label %.lr.ph, label %._crit_edge, !llvm.loop !6

._crit_edge:                                      ; preds = %.lr.ph, %.preheader
  %.014.lcssa = phi i32 [ %0, %.preheader ], [ %8, %.lr.ph ]
  %.0.lcssa = phi i32 [ 0, %.preheader ], [ %9, %.lr.ph ]
  %.not = icmp eq ptr %2, null
  br i1 %.not, label %14, label %13

13:                                               ; preds = %._crit_edge
  store i32 %.0.lcssa, ptr %2, align 4
  br label %14

14:                                               ; preds = %13, %._crit_edge
  %15 = icmp eq i32 %.014.lcssa, %0
  br label %16

16:                                               ; preds = %3, %14
  %.013 = phi i1 [ %15, %14 ], [ false, %3 ]
  ret i1 %.013
}